target datalayout = "e-m:e-p270:32:32-p271:32:32-p272:64:64-i64:64-i128:128-f80:128-n8:16:32:64-S128"
target triple = "x86_64-pc-linux-gnu"

%struct.curve448_point_s = type { [1 x %struct.gf_s], [1 x %struct.gf_s], [1 x %struct.gf_s], [1 x %struct.gf_s] }
%struct.gf_s = type { [8 x i64] }

; Function Attrs: inlinehint nounwind uwtable
define internal i64 @mask_to_bool(i64 noundef %0) #3 {
  %2 = alloca i64, align 8
  store i64 %0, ptr %2, align 8, !tbaa !10
  %3 = load i64, ptr %2, align 8, !tbaa !10
  ret i64 %3
}

; Function Attrs: nounwind uwtable
define i64 @ossl_curve448_point_eq(ptr noundef %0, ptr noundef %1) #0 {
  %3 = alloca ptr, align 8
  %4 = alloca ptr, align 8
  %5 = alloca i64, align 8
  %6 = alloca [1 x %struct.gf_s], align 16
  %7 = alloca [1 x %struct.gf_s], align 16
  store ptr %0, ptr %3, align 8, !tbaa !3
  store ptr %1, ptr %4, align 8, !tbaa !3
  call void @llvm.lifetime.start.p0(i64 8, ptr %5) #8
  call void @llvm.lifetime.start.p0(i64 64, ptr %6) #8
  call void @llvm.lifetime.start.p0(i64 64, ptr %7) #8
  %8 = getelementptr inbounds [1 x %struct.gf_s], ptr %6, i64 0, i64 0
  %9 = load ptr, ptr %3, align 8, !tbaa !3
  %10 = getelementptr inbounds nuw %struct.curve448_point_s, ptr %9, i32 0, i32 1
  %11 = getelementptr inbounds [1 x %struct.gf_s], ptr %10, i64 0, i64 0
  %12 = load ptr, ptr %4, align 8, !tbaa !3
  %13 = getelementptr inbounds nuw %struct.curve448_point_s, ptr %12, i32 0, i32 0
  %14 = getelementptr inbounds [1 x %struct.gf_s], ptr %13, i64 0, i64 0
  call void @ossl_gf_mul(ptr noundef %8, ptr noundef %11, ptr noundef %14)
  %15 = getelementptr inbounds [1 x %struct.gf_s], ptr %7, i64 0, i64 0
  %16 = load ptr, ptr %4, align 8, !tbaa !3
  %17 = getelementptr inbounds nuw %struct.curve448_point_s, ptr %16, i32 0, i32 1
  %18 = getelementptr inbounds [1 x %struct.gf_s], ptr %17, i64 0, i64 0
  %19 = load ptr, ptr %3, align 8, !tbaa !3
  %20 = getelementptr inbounds nuw %struct.curve448_point_s, ptr %19, i32 0, i32 0
  %21 = getelementptr inbounds [1 x %struct.gf_s], ptr %20, i64 0, i64 0
  call void @ossl_gf_mul(ptr noundef %15, ptr noundef %18, ptr noundef %21)
  %22 = getelementptr inbounds [1 x %struct.gf_s], ptr %6, i64 0, i64 0
  %23 = getelementptr inbounds [1 x %struct.gf_s], ptr %7, i64 0, i64 0
  %24 = call i64 @gf_eq(ptr noundef %22, ptr noundef %23)
  store i64 %24, ptr %5, align 8, !tbaa !10
  %25 = load i64, ptr %5, align 8, !tbaa !10
  %26 = call i64 @mask_to_bool(i64 noundef %25)
  call void @llvm.lifetime.end.p0(i64 64, ptr %7) #8
  call void @llvm.lifetime.end.p0(i64 64, ptr %6) #8
  call void @llvm.lifetime.end.p0(i64 8, ptr %5) #8
  ret i64 %26
}