; Function Attrs: nounwind uwtable
define i64 @ossl_curve448_point_eq(ptr noundef %0, ptr noundef %1) local_unnamed_addr #0 {
  %3 = alloca [1 x %struct.gf_s], align 16
  %4 = alloca [1 x %struct.gf_s], align 16
  call void @llvm.lifetime.start.p0(i64 64, ptr nonnull %3) #7
  call void @llvm.lifetime.start.p0(i64 64, ptr nonnull %4) #7
  %5 = getelementptr inbounds nuw i8, ptr %0, i64 64
  call void @ossl_gf_mul(ptr noundef nonnull %3, ptr noundef nonnull %5, ptr noundef %1) #7
  %6 = getelementptr inbounds nuw i8, ptr %1, i64 64
  call void @ossl_gf_mul(ptr noundef nonnull %4, ptr noundef nonnull %6, ptr noundef %0) #7
  %7 = call i64 @gf_eq(ptr noundef nonnull %3, ptr noundef nonnull %4) #7
  call void @llvm.lifetime.end.p0(i64 64, ptr nonnull %4) #7
  call void @llvm.lifetime.end.p0(i64 64, ptr nonnull %3) #7
  ret i64 %7
}